target datalayout = "e-m:e-p270:32:32-p271:32:32-p272:64:64-i64:64-i128:128-f80:128-n8:16:32:64-S128"
target triple = "x86_64-pc-linux-gnu"

%struct.MatroskaDemuxContext = type { ptr, ptr, [16 x %struct.MatroskaLevel], i32, i32, i64, i32, i64, double, ptr, ptr, %struct.EbmlBin, %struct.EbmlList, %struct.EbmlList, %struct.EbmlList, %struct.EbmlList, %struct.EbmlList, %struct.EbmlList, i64, ptr, %struct.PacketList, i32, i32, i64, i32, [64 x %struct.MatroskaLevel1Element], i32, %struct.MatroskaCluster, i32, i32, i32 }
%struct.MatroskaLevel = type { i64, i64 }
%struct.EbmlBin = type { i32, ptr, ptr, i64 }
%struct.EbmlList = type { i32, i32, ptr }
%struct.PacketList = type { ptr, ptr }
%struct.MatroskaLevel1Element = type { i64, i32, i32 }
%struct.MatroskaCluster = type { %struct.MatroskaBlock, i64, i64 }
%struct.MatroskaBlock = type { i64, %struct.CountedElement, i64, %struct.EbmlBin, %struct.EbmlList, i64 }
%struct.CountedElement = type { %union.anon.0, i32 }
%union.anon.0 = type { i64 }
%struct.AVIOContext = type { ptr, ptr, i32, ptr, ptr, ptr, ptr, ptr, ptr, i64, i32, i32, i32, i32, i32, i64, ptr, ptr, ptr, ptr, i32, i32, ptr, ptr, ptr, i32, ptr, i64, i64 }

@ff_log2_tab = external constant [256 x i8], align 16
@.str.27 = private unnamed_addr constant [65 x i8] c"0x00 at pos %ld (0x%lx) invalid as first byte of an EBML number\0A\00", align 1
@.str.28 = private unnamed_addr constant [101 x i8] c"Length %d indicated by an EBML number's first byte 0x%02x at pos %ld (0x%lx) exceeds max length %d.\0A\00", align 1
@.str.29 = private unnamed_addr constant [32 x i8] c"Read error at pos. %lu (0x%lx)\0A\00", align 1
@.str.30 = private unnamed_addr constant [44 x i8] c"File ended prematurely at pos. %lu (0x%lx)\0A\00", align 1

; Function Attrs: alwaysinline nounwind uwtable
define internal i64 @avio_tell(ptr noundef %0) #3 {
  %2 = alloca ptr, align 8
  store ptr %0, ptr %2, align 8, !tbaa !169
  %3 = load ptr, ptr %2, align 8, !tbaa !169
  %4 = call i64 @avio_seek(ptr noundef %3, i64 noundef 0, i32 noundef 1)
  ret i64 %4
}

; Function Attrs: nounwind uwtable
define internal i32 @ebml_read_num(ptr noundef %0, ptr noundef %1, i32 noundef %2, ptr noundef %3, i32 noundef %4) #0 {
  %6 = alloca i32, align 4
  %7 = alloca ptr, align 8
  %8 = alloca ptr, align 8
  %9 = alloca i32, align 4
  %10 = alloca ptr, align 8
  %11 = alloca i32, align 4
  %12 = alloca i32, align 4
  %13 = alloca i32, align 4
  %14 = alloca i64, align 8
  %15 = alloca i64, align 8
  %16 = alloca i32, align 4
  store ptr %0, ptr %7, align 8, !tbaa !27
  store ptr %1, ptr %8, align 8, !tbaa !169
  store i32 %2, ptr %9, align 4, !tbaa !9
  store ptr %3, ptr %10, align 8, !tbaa !181
  store i32 %4, ptr %11, align 4, !tbaa !9
  call void @llvm.lifetime.start.p0(i64 4, ptr %12) #14
  call void @llvm.lifetime.start.p0(i64 4, ptr %13) #14
  store i32 1, ptr %13, align 4, !tbaa !9
  call void @llvm.lifetime.start.p0(i64 8, ptr %14) #14
  call void @llvm.lifetime.start.p0(i64 8, ptr %15) #14
  %17 = load ptr, ptr %8, align 8, !tbaa !169
  %18 = call i32 @avio_r8(ptr noundef %17)
  %19 = sext i32 %18 to i64
  store i64 %19, ptr %14, align 8, !tbaa !49
  %20 = load ptr, ptr %8, align 8, !tbaa !169
  %21 = getelementptr inbounds nuw %struct.AVIOContext, ptr %20, i32 0, i32 10
  %22 = load i32, ptr %21, align 8, !tbaa !183
  %23 = icmp ne i32 %22, 0
  br i1 %23, label %24, label %25

24:                                               ; preds = %5
  br label %92

25:                                               ; preds = %5
  %26 = load i64, ptr %14, align 8, !tbaa !49
  %27 = getelementptr inbounds nuw [256 x i8], ptr @ff_log2_tab, i64 0, i64 %26
  %28 = load i8, ptr %27, align 1, !tbaa !69
  %29 = zext i8 %28 to i32
  %30 = sub nsw i32 8, %29
  store i32 %30, ptr %12, align 4, !tbaa !9
  %31 = load i64, ptr %14, align 8, !tbaa !49
  %32 = icmp ne i64 %31, 0
  br i1 %32, label %33, label %37

33:                                               ; preds = %25
  %34 = load i32, ptr %12, align 4, !tbaa !9
  %35 = load i32, ptr %9, align 4, !tbaa !9
  %36 = icmp sgt i32 %34, %35
  br i1 %36, label %37, label %61

37:                                               ; preds = %33, %25
  %38 = load ptr, ptr %8, align 8, !tbaa !169
  %39 = call i64 @avio_tell(ptr noundef %38)
  %40 = sub nsw i64 %39, 1
  store i64 %40, ptr %15, align 8, !tbaa !49
  %41 = load i64, ptr %14, align 8, !tbaa !49
  %42 = icmp ne i64 %41, 0
  br i1 %42, label %49, label %43

43:                                               ; preds = %37
  %44 = load ptr, ptr %7, align 8, !tbaa !27
  %45 = getelementptr inbounds nuw %struct.MatroskaDemuxContext, ptr %44, i32 0, i32 1
  %46 = load ptr, ptr %45, align 8, !tbaa !79
  %47 = load i64, ptr %15, align 8, !tbaa !49
  %48 = load i64, ptr %15, align 8, !tbaa !49
  call void (ptr, i32, ptr, ...) @av_log(ptr noundef %46, i32 noundef 16, ptr noundef @.str.27, i64 noundef %47, i64 noundef %48)
  br label %60

49:                                               ; preds = %37
  %50 = load ptr, ptr %7, align 8, !tbaa !27
  %51 = getelementptr inbounds nuw %struct.MatroskaDemuxContext, ptr %50, i32 0, i32 1
  %52 = load ptr, ptr %51, align 8, !tbaa !79
  %53 = load i32, ptr %12, align 4, !tbaa !9
  %54 = load i64, ptr %14, align 8, !tbaa !49
  %55 = trunc i64 %54 to i8
  %56 = zext i8 %55 to i32
  %57 = load i64, ptr %15, align 8, !tbaa !49
  %58 = load i64, ptr %15, align 8, !tbaa !49
  %59 = load i32, ptr %9, align 4, !tbaa !9
  call void (ptr, i32, ptr, ...) @av_log(ptr noundef %52, i32 noundef 16, ptr noundef @.str.28, i32 noundef %53, i32 noundef %56, i64 noundef %57, i64 noundef %58, i32 noundef %59)
  br label %60

60:                                               ; preds = %49, %43
  store i32 -1094995529, ptr %6, align 4
  store i32 1, ptr %16, align 4
  br label %118

61:                                               ; preds = %33
  %62 = load i64, ptr %14, align 8, !tbaa !49
  %63 = getelementptr inbounds nuw [256 x i8], ptr @ff_log2_tab, i64 0, i64 %62
  %64 = load i8, ptr %63, align 1, !tbaa !69
  %65 = zext i8 %64 to i32
  %66 = shl i32 1, %65
  %67 = sext i32 %66 to i64
  %68 = load i64, ptr %14, align 8, !tbaa !49
  %69 = xor i64 %68, %67
  store i64 %69, ptr %14, align 8, !tbaa !49
  br label %70

70:                                               ; preds = %75, %61
  %71 = load i32, ptr %13, align 4, !tbaa !9
  %72 = add nsw i32 %71, 1
  store i32 %72, ptr %13, align 4, !tbaa !9
  %73 = load i32, ptr %12, align 4, !tbaa !9
  %74 = icmp slt i32 %71, %73
  br i1 %74, label %75, label %82

75:                                               ; preds = %70
  %76 = load i64, ptr %14, align 8, !tbaa !49
  %77 = shl i64 %76, 8
  %78 = load ptr, ptr %8, align 8, !tbaa !169
  %79 = call i32 @avio_r8(ptr noundef %78)
  %80 = sext i32 %79 to i64
  %81 = or i64 %77, %80
  store i64 %81, ptr %14, align 8, !tbaa !49
  br label %70, !llvm.loop !185

82:                                               ; preds = %70
  %83 = load ptr, ptr %8, align 8, !tbaa !169
  %84 = getelementptr inbounds nuw %struct.AVIOContext, ptr %83, i32 0, i32 10
  %85 = load i32, ptr %84, align 8, !tbaa !183
  %86 = icmp ne i32 %85, 0
  br i1 %86, label %87, label %88

87:                                               ; preds = %82
  store i32 1, ptr %11, align 4, !tbaa !9
  br label %92

88:                                               ; preds = %82
  %89 = load i64, ptr %14, align 8, !tbaa !49
  %90 = load ptr, ptr %10, align 8, !tbaa !181
  store i64 %89, ptr %90, align 8, !tbaa !49
  %91 = load i32, ptr %12, align 4, !tbaa !9
  store i32 %91, ptr %6, align 4
  store i32 1, ptr %16, align 4
  br label %118

92:                                               ; preds = %87, %24
  %93 = load ptr, ptr %8, align 8, !tbaa !169
  %94 = call i64 @avio_tell(ptr noundef %93)
  store i64 %94, ptr %15, align 8, !tbaa !49
  %95 = load ptr, ptr %8, align 8, !tbaa !169
  %96 = getelementptr inbounds nuw %struct.AVIOContext, ptr %95, i32 0, i32 11
  %97 = load i32, ptr %96, align 4, !tbaa !186
  %98 = icmp ne i32 %97, 0
  br i1 %98, label %99, label %108

99:                                               ; preds = %92
  %100 = load ptr, ptr %7, align 8, !tbaa !27
  %101 = getelementptr inbounds nuw %struct.MatroskaDemuxContext, ptr %100, i32 0, i32 1
  %102 = load ptr, ptr %101, align 8, !tbaa !79
  %103 = load i64, ptr %15, align 8, !tbaa !49
  %104 = load i64, ptr %15, align 8, !tbaa !49
  call void (ptr, i32, ptr, ...) @av_log(ptr noundef %102, i32 noundef 16, ptr noundef @.str.29, i64 noundef %103, i64 noundef %104)
  %105 = load ptr, ptr %8, align 8, !tbaa !169
  %106 = getelementptr inbounds nuw %struct.AVIOContext, ptr %105, i32 0, i32 11
  %107 = load i32, ptr %106, align 4, !tbaa !186
  store i32 %107, ptr %6, align 4
  store i32 1, ptr %16, align 4
  br label %118

108:                                              ; preds = %92
  %109 = load i32, ptr %11, align 4, !tbaa !9
  %110 = icmp ne i32 %109, 0
  br i1 %110, label %111, label %117

111:                                              ; preds = %108
  %112 = load ptr, ptr %7, align 8, !tbaa !27
  %113 = getelementptr inbounds nuw %struct.MatroskaDemuxContext, ptr %112, i32 0, i32 1
  %114 = load ptr, ptr %113, align 8, !tbaa !79
  %115 = load i64, ptr %15, align 8, !tbaa !49
  %116 = load i64, ptr %15, align 8, !tbaa !49
  call void (ptr, i32, ptr, ...) @av_log(ptr noundef %114, i32 noundef 16, ptr noundef @.str.30, i64 noundef %115, i64 noundef %116)
  store i32 -5, ptr %6, align 4
  store i32 1, ptr %16, align 4
  br label %118

117:                                              ; preds = %108
  store i32 -541478725, ptr %6, align 4
  store i32 1, ptr %16, align 4
  br label %118

118:                                              ; preds = %117, %111, %99, %88, %60
  call void @llvm.lifetime.end.p0(i64 8, ptr %15) #14
  call void @llvm.lifetime.end.p0(i64 8, ptr %14) #14
  call void @llvm.lifetime.end.p0(i64 4, ptr %13) #14
  call void @llvm.lifetime.end.p0(i64 4, ptr %12) #14
  %119 = load i32, ptr %6, align 4
  ret i32 %119
}