; Function Attrs: nounwind uwtable
define internal fastcc i32 @ebml_read_num(ptr noundef readonly captures(none) %0, ptr noundef %1, i32 noundef range(i32 4, 9) %2, ptr noundef nonnull writeonly captures(none) %3, i32 noundef range(i32 0, 2) %4) unnamed_addr #0 {
  %6 = tail call i32 @avio_r8(ptr noundef %1) #15
  %7 = getelementptr inbounds nuw i8, ptr %1, i64 80
  %8 = load i32, ptr %7, align 8, !tbaa !385
  %.not = icmp eq i32 %8, 0
  br i1 %.not, label %9, label %35

9:                                                ; preds = %5
  %10 = sext i32 %6 to i64
  %11 = getelementptr inbounds nuw [256 x i8], ptr @ff_log2_tab, i64 0, i64 %10
  %12 = load i8, ptr %11, align 1, !tbaa !119
  %13 = zext i8 %12 to i32
  %14 = sub nsw i32 8, %13
  %.not42 = icmp eq i32 %6, 0
  %15 = icmp sgt i32 %14, %2
  %or.cond = select i1 %.not42, i1 true, i1 %15
  br i1 %or.cond, label %16, label %24

16:                                               ; preds = %9
  %17 = tail call i64 @avio_seek(ptr noundef nonnull %1, i64 noundef 0, i32 noundef 1) #15
  %18 = add nsw i64 %17, -1
  %19 = getelementptr inbounds nuw i8, ptr %0, i64 8
  %20 = load ptr, ptr %19, align 8, !tbaa !58
  br i1 %.not42, label %21, label %22

21:                                               ; preds = %16
  tail call void (ptr, i32, ptr, ...) @av_log(ptr noundef %20, i32 noundef 16, ptr noundef nonnull @.str.27, i64 noundef %18, i64 noundef %18) #15
  br label %47

22:                                               ; preds = %16
  %23 = and i32 %6, 255
  tail call void (ptr, i32, ptr, ...) @av_log(ptr noundef %20, i32 noundef 16, ptr noundef nonnull @.str.28, i32 noundef %14, i32 noundef %23, i64 noundef %18, i64 noundef %18, i32 noundef %2) #15
  br label %47

24:                                               ; preds = %9
  %25 = shl nuw i32 1, %13
  %26 = xor i32 %25, %6
  %27 = sext i32 %26 to i64
  %28 = icmp ult i8 %12, 7
  br i1 %28, label %.lr.ph, label %._crit_edge.thread

.lr.ph:                                           ; preds = %24, %.lr.ph
  %.047 = phi i64 [ %33, %.lr.ph ], [ %27, %24 ]
  %.03746 = phi i32 [ %29, %.lr.ph ], [ 1, %24 ]
  %29 = add nuw nsw i32 %.03746, 1
  %30 = shl i64 %.047, 8
  %31 = tail call i32 @avio_r8(ptr noundef nonnull %1) #15
  %32 = sext i32 %31 to i64
  %33 = or i64 %30, %32
  %exitcond.not = icmp eq i32 %29, %14
  br i1 %exitcond.not, label %._crit_edge, label %.lr.ph, !llvm.loop !386

._crit_edge:                                      ; preds = %.lr.ph
  %.pre = load i32, ptr %7, align 8, !tbaa !385
  %34 = icmp eq i32 %.pre, 0
  br i1 %34, label %._crit_edge.thread, label %35

._crit_edge.thread:                               ; preds = %24, %._crit_edge
  %.0.lcssa50 = phi i64 [ %33, %._crit_edge ], [ %27, %24 ]
  store i64 %.0.lcssa50, ptr %3, align 8, !tbaa !61
  br label %47

35:                                               ; preds = %._crit_edge, %5
  %.039 = phi i32 [ %4, %5 ], [ 1, %._crit_edge ]
  %36 = tail call i64 @avio_seek(ptr noundef nonnull %1, i64 noundef 0, i32 noundef 1) #15
  %37 = getelementptr inbounds nuw i8, ptr %1, i64 84
  %38 = load i32, ptr %37, align 4, !tbaa !387
  %.not44 = icmp eq i32 %38, 0
  br i1 %.not44, label %43, label %39

39:                                               ; preds = %35
  %40 = getelementptr inbounds nuw i8, ptr %0, i64 8
  %41 = load ptr, ptr %40, align 8, !tbaa !58
  tail call void (ptr, i32, ptr, ...) @av_log(ptr noundef %41, i32 noundef 16, ptr noundef nonnull @.str.29, i64 noundef %36, i64 noundef %36) #15
  %42 = load i32, ptr %37, align 4, !tbaa !387
  br label %47

43:                                               ; preds = %35
  %.not45 = icmp eq i32 %.039, 0
  br i1 %.not45, label %47, label %44

44:                                               ; preds = %43
  %45 = getelementptr inbounds nuw i8, ptr %0, i64 8
  %46 = load ptr, ptr %45, align 8, !tbaa !58
  tail call void (ptr, i32, ptr, ...) @av_log(ptr noundef %46, i32 noundef 16, ptr noundef nonnull @.str.30, i64 noundef %36, i64 noundef %36) #15
  br label %47

47:                                               ; preds = %43, %21, %22, %44, %39, %._crit_edge.thread
  %.038 = phi i32 [ %42, %39 ], [ -5, %44 ], [ %14, %._crit_edge.thread ], [ -1094995529, %22 ], [ -1094995529, %21 ], [ -541478725, %43 ]
  ret i32 %.038
}